target datalayout = "e-m:e-p270:32:32-p271:32:32-p272:64:64-i64:64-i128:128-f80:128-n8:16:32:64-S128"
target triple = "x86_64-pc-linux-gnu"

@.str.4 = private unnamed_addr constant [2 x i8] c"\0A\00", align 1
@.str.10 = private unnamed_addr constant [81 x i8] c"Additional -D<macro>[=<value>] options may be added after the option indicating\0A\00", align 1
@.str.11 = private unnamed_addr constant [81 x i8] c"the language version (and before file names) to set additional verilog defines.\0A\00", align 1
@.str.135 = private unnamed_addr constant [81 x i8] c"    read {-vlog95|-vlog2k|-sv2005|-sv2009|-sv2012|-sv|-formal} <verilog-file>..\0A\00", align 1
@.str.136 = private unnamed_addr constant [77 x i8] c"Load the specified Verilog/SystemVerilog files. (Full SystemVerilog support\0A\00", align 1
@.str.137 = private unnamed_addr constant [33 x i8] c"is only available via Verific.)\0A\00", align 1
@.str.138 = private unnamed_addr constant [38 x i8] c"    read {-liberty} <liberty-file>..\0A\00", align 1
@.str.139 = private unnamed_addr constant [35 x i8] c"Load the specified Liberty files.\0A\00", align 1
@.str.140 = private unnamed_addr constant [10 x i8] c"    -lib\0A\00", align 1
@.str.141 = private unnamed_addr constant [44 x i8] c"        only create empty blackbox modules\0A\00", align 1
@.str.142 = private unnamed_addr constant [33 x i8] c"    read {-f|-F} <command-file>\0A\00", align 1
@.str.143 = private unnamed_addr constant [66 x i8] c"Load and execute the specified command file. (Requires Verific.)\0A\00", align 1
@.str.144 = private unnamed_addr constant [78 x i8] c"Check verific command for more information about supported commands in file.\0A\00", align 1
@.str.145 = private unnamed_addr constant [38 x i8] c"    read -define <macro>[=<value>]..\0A\00", align 1
@.str.146 = private unnamed_addr constant [43 x i8] c"Set global Verilog/SystemVerilog defines.\0A\00", align 1
@.str.147 = private unnamed_addr constant [27 x i8] c"    read -undef <macro>..\0A\00", align 1
@.str.148 = private unnamed_addr constant [45 x i8] c"Unset global Verilog/SystemVerilog defines.\0A\00", align 1
@.str.149 = private unnamed_addr constant [30 x i8] c"    read -incdir <directory>\0A\00", align 1
@.str.150 = private unnamed_addr constant [68 x i8] c"Add directory to global Verilog/SystemVerilog include directories.\0A\00", align 1
@.str.151 = private unnamed_addr constant [19 x i8] c"    read -verific\0A\00", align 1
@.str.152 = private unnamed_addr constant [21 x i8] c"    read -noverific\0A\00", align 1
@.str.153 = private unnamed_addr constant [79 x i8] c"Subsequent calls to 'read' will either use or not use Verific. Calling 'read'\0A\00", align 1
@.str.154 = private unnamed_addr constant [80 x i8] c"with -verific will result in an error on Yosys binaries that are built without\0A\00", align 1
@.str.155 = private unnamed_addr constant [68 x i8] c"Verific support. The default is to use Verific if it is available.\0A\00", align 1

; Function Attrs: mustprogress uwtable
define internal void @_ZN12_GLOBAL__N_18ReadPass4helpEv(ptr noundef nonnull align 8 dereferenceable(104) %0) unnamed_addr #4 align 2 {
  %2 = alloca ptr, align 8
  store ptr %0, ptr %2, align 8
  call void (ptr, ...) @_ZN5Yosys3logEPKcz(ptr noundef @.str.4)
  call void (ptr, ...) @_ZN5Yosys3logEPKcz(ptr noundef @.str.135)
  call void (ptr, ...) @_ZN5Yosys3logEPKcz(ptr noundef @.str.4)
  call void (ptr, ...) @_ZN5Yosys3logEPKcz(ptr noundef @.str.136)
  call void (ptr, ...) @_ZN5Yosys3logEPKcz(ptr noundef @.str.137)
  call void (ptr, ...) @_ZN5Yosys3logEPKcz(ptr noundef @.str.4)
  call void (ptr, ...) @_ZN5Yosys3logEPKcz(ptr noundef @.str.10)
  call void (ptr, ...) @_ZN5Yosys3logEPKcz(ptr noundef @.str.11)
  call void (ptr, ...) @_ZN5Yosys3logEPKcz(ptr noundef @.str.4)
  call void (ptr, ...) @_ZN5Yosys3logEPKcz(ptr noundef @.str.4)
  call void (ptr, ...) @_ZN5Yosys3logEPKcz(ptr noundef @.str.138)
  call void (ptr, ...) @_ZN5Yosys3logEPKcz(ptr noundef @.str.4)
  call void (ptr, ...) @_ZN5Yosys3logEPKcz(ptr noundef @.str.139)
  call void (ptr, ...) @_ZN5Yosys3logEPKcz(ptr noundef @.str.4)
  call void (ptr, ...) @_ZN5Yosys3logEPKcz(ptr noundef @.str.140)
  call void (ptr, ...) @_ZN5Yosys3logEPKcz(ptr noundef @.str.141)
  call void (ptr, ...) @_ZN5Yosys3logEPKcz(ptr noundef @.str.4)
  call void (ptr, ...) @_ZN5Yosys3logEPKcz(ptr noundef @.str.4)
  call void (ptr, ...) @_ZN5Yosys3logEPKcz(ptr noundef @.str.142)
  call void (ptr, ...) @_ZN5Yosys3logEPKcz(ptr noundef @.str.4)
  call void (ptr, ...) @_ZN5Yosys3logEPKcz(ptr noundef @.str.143)
  call void (ptr, ...) @_ZN5Yosys3logEPKcz(ptr noundef @.str.144)
  call void (ptr, ...) @_ZN5Yosys3logEPKcz(ptr noundef @.str.4)
  call void (ptr, ...) @_ZN5Yosys3logEPKcz(ptr noundef @.str.4)
  call void (ptr, ...) @_ZN5Yosys3logEPKcz(ptr noundef @.str.145)
  call void (ptr, ...) @_ZN5Yosys3logEPKcz(ptr noundef @.str.4)
  call void (ptr, ...) @_ZN5Yosys3logEPKcz(ptr noundef @.str.146)
  call void (ptr, ...) @_ZN5Yosys3logEPKcz(ptr noundef @.str.4)
  call void (ptr, ...) @_ZN5Yosys3logEPKcz(ptr noundef @.str.4)
  call void (ptr, ...) @_ZN5Yosys3logEPKcz(ptr noundef @.str.147)
  call void (ptr, ...) @_ZN5Yosys3logEPKcz(ptr noundef @.str.4)
  call void (ptr, ...) @_ZN5Yosys3logEPKcz(ptr noundef @.str.148)
  call void (ptr, ...) @_ZN5Yosys3logEPKcz(ptr noundef @.str.4)
  call void (ptr, ...) @_ZN5Yosys3logEPKcz(ptr noundef @.str.4)
  call void (ptr, ...) @_ZN5Yosys3logEPKcz(ptr noundef @.str.149)
  call void (ptr, ...) @_ZN5Yosys3logEPKcz(ptr noundef @.str.4)
  call void (ptr, ...) @_ZN5Yosys3logEPKcz(ptr noundef @.str.150)
  call void (ptr, ...) @_ZN5Yosys3logEPKcz(ptr noundef @.str.4)
  call void (ptr, ...) @_ZN5Yosys3logEPKcz(ptr noundef @.str.4)
  call void (ptr, ...) @_ZN5Yosys3logEPKcz(ptr noundef @.str.151)
  call void (ptr, ...) @_ZN5Yosys3logEPKcz(ptr noundef @.str.152)
  call void (ptr, ...) @_ZN5Yosys3logEPKcz(ptr noundef @.str.4)
  call void (ptr, ...) @_ZN5Yosys3logEPKcz(ptr noundef @.str.153)
  call void (ptr, ...) @_ZN5Yosys3logEPKcz(ptr noundef @.str.154)
  call void (ptr, ...) @_ZN5Yosys3logEPKcz(ptr noundef @.str.155)
  call void (ptr, ...) @_ZN5Yosys3logEPKcz(ptr noundef @.str.4)
  ret void
}